-----BEGIN PRIVATE KEY-----
MIIEvQIBADANBgkqhkiG9w0BAQEFAASCBKcwggSjAgEAAoIBAQDQnrLdsK2nZYWH
raJf1ly+ahC2gDDjGxlDUj1UXwtpJlqb0OOVuDL4YuA6rAizLO3qRFOruuytc1GX
XSTQGh8ZGlfWJ/LPuAsC6qIh4tUzw7nkqbkzCzM5BnEjos4Y0n/w+xt1JpFo4hdV
JlBDGFTDP36Pmi7qYDHmMJDTxz9W0CLtTNxeghBcc2FopEpVyjaQP0sy2k8frMSf
uxHtA9amA7YRqf1b/1dd+1YErWhWkZR9xfd/+yv55hsH06ZiYvpj1+bDID4mmk1+
CvUJzDBRLnQbZ6A8CAhhiDDDKUFgCq2JrZId7zp3eYi2Dckw6BzkBRfzSAKFuvGD
Fh4tYdcPAgMBAAECggEAcVHzGObSvT4xNU0FCYf4Ytpcb7XcWFCs/VubwsvJ9/kE
eOUT6oze6vtSj6xJIYLDTWCGDp9/1ovwgwbuazf1Mn6Tvdl/VIPFP3VSUpPTecXU
oTfsSKTJ0y0DofbaerNFGhJcjNtBWzaMtA0WxgteZ5yC0+BNobRVBpPU56SwbCex
eSqS13ccile0hkgOK9wMz2rR6xpIZVmodorAYs0pFsJdd0M6LLHyGb1VOj+c6a+b
nFAbYGMWeRC47KmQHt6nYidKbLzASk6YzlGkqKBoPz1ikQJAcvZHxf70fXfbBPIN
ZY6K1TzjL3XlbP9kBKb6Rl2Ea/GBwja0S4PkVY5jcQKBgQD1n/tV1lvPhHpUfCR3
fCESLhA8EEmYc9xHiZ2G8nUfwEMo+AU50GPwN3xmmVQiR+H79twXDofe9UAvABxw
wdVRk7a7W2C/uIHrG6ghv0pzxrK5++rfvkULNc5/7hwtn5ZJSRZxlsBC1CXECuKG
hzahi/z7muqrRhVzwpcpKyZuGQKBgQDZbpH+o6Jz5AuN7y1uPuso6vaevKZkOCaK
Pq/KhgUaqz+VE/F0en+PXavASLAvfTuSFZFVY+ueOGFcbRCrc7tt/1lzdgV0/NHw
OXNOyn7ajWuDItqmx/hBlC3/eOhXR1jPk6gPP8ivBMR/no6SKVKuOfd6nmD3ouHB
0oe3kFNDZwKBgBwoZ+6yMTo77K4swR11fHESGMhZ8aXpelI1I3rp5qVqLAjRTgAP
tLVAFyHH6A46AV0aMqbuAoN7yAzbTWdbwTGl5mfaFOBFrZcfR4n+3PEi0TBjAcz+
ifm8BF1EFbThO6BRIaKJ7qZ6nY241bkoXQnt+2V4n/hcg28O2rdce/5ZAoGBANL2
YDrDw+RT2A4fiWHVNE9gImcDvSGyBVrO1btXa25jx246imSsUkXk6bbIEAITrQ/h
U0CZkUvTgkuuGqVvxeRFBCJt2X+XqY49/63r9UbSPgVfdOyrSyk9v5+HTU8Zj4bf
ygj5pxqBMrJsQgJ4i5s17POQ5Z5/8DEhtsKZCuBzAoGAPhrCAgb44Bn0m7WRPLPk
+cQLnWCPdPVfm+q21LmNjdUtR6PTUJbM4QYpWAQZ3Ok5o3231rG8SO6/O5Ky3d3e
oT+M7DorscaGv9S3w96DAVyi5nsB/RLXOG28Z30tcL7COTSrwRgRJZKdoGtmvg8L
RCzJHyxvjlbOFdvlLJ5Ke8E=
-----END PRIVATE KEY-----
Certificate:
    Data:
        Version: 3 (0x2)
        Serial Number:
            f5:b8:83:27:a7:2c:54:ba
    Signature Algorithm: sha256WithRSAEncryption
        Issuer: C=US, ST=California, O=Belkin International, Inc., OU=Belkin International, Inc., CN=linksyssmartwifi.com
        Validity
            Not Before: Jan 24 18:14:04 2022 GMT
            Not After : Jan 22 18:14:04 2032 GMT
        Subject: C=US, ST=California, O=Belkin International, Inc., OU=Belkin International, Inc., CN=linksyssmartwifi.com
        Subject Public Key Info:
            Public Key Algorithm: rsaEncryption
                Public-Key: (2048 bit)
                Modulus:
                    00:d0:9e:b2:dd:b0:ad:a7:65:85:87:ad:a2:5f:d6:
                    5c:be:6a:10:b6:80:30:e3:1b:19:43:52:3d:54:5f:
                    0b:69:26:5a:9b:d0:e3:95:b8:32:f8:62:e0:3a:ac:
                    08:b3:2c:ed:ea:44:53:ab:ba:ec:ad:73:51:97:5d:
                    24:d0:1a:1f:19:1a:57:d6:27:f2:cf:b8:0b:02:ea:
                    a2:21:e2:d5:33:c3:b9:e4:a9:b9:33:0b:33:39:06:
                    71:23:a2:ce:18:d2:7f:f0:fb:1b:75:26:91:68:e2:
                    17:55:26:50:43:18:54:c3:3f:7e:8f:9a:2e:ea:60:
                    31:e6:30:90:d3:c7:3f:56:d0:22:ed:4c:dc:5e:82:
                    10:5c:73:61:68:a4:4a:55:ca:36:90:3f:4b:32:da:
                    4f:1f:ac:c4:9f:bb:11:ed:03:d6:a6:03:b6:11:a9:
                    fd:5b:ff:57:5d:fb:56:04:ad:68:56:91:94:7d:c5:
                    f7:7f:fb:2b:f9:e6:1b:07:d3:a6:62:62:fa:63:d7:
                    e6:c3:20:3e:26:9a:4d:7e:0a:f5:09:cc:30:51:2e:
                    74:1b:67:a0:3c:08:08:61:88:30:c3:29:41:60:0a:
                    ad:89:ad:92:1d:ef:3a:77:79:88:b6:0d:c9:30:e8:
                    1c:e4:05:17:f3:48:02:85:ba:f1:83:16:1e:2d:61:
                    d7:0f
                Exponent: 65537 (0x10001)
        X509v3 extensions:
            X509v3 Basic Constraints: 
                CA:FALSE
            X509v3 Key Usage: 
                Digital Signature, Non Repudiation, Key Encipherment
            X509v3 Subject Alternative Name: 
                DNS:linksyssmartwifi.com, DNS:www.linksyssmartwifi.com, DNS:myrouter.local, DNS:EA8300.home.linksys.com
    Signature Algorithm: sha256WithRSAEncryption
         43:d0:24:02:9f:b8:bf:01:3a:1d:45:d9:ce:0e:73:08:11:f2:
         dd:cd:a0:ef:ff:93:49:eb:50:44:5c:93:cf:08:32:4c:de:6f:
         45:89:7f:ac:5f:cb:d6:8c:60:a7:e4:24:6a:4f:36:69:42:91:
         8f:da:9e:fb:14:c4:01:da:1e:f7:76:d2:25:e5:ea:5e:0f:9b:
         37:5e:4b:01:c3:ba:39:2d:e4:f9:16:ef:95:d1:02:07:9f:8b:
         43:9d:9b:76:0d:24:74:af:30:c2:50:64:a5:65:96:b8:30:1f:
         ea:d7:31:24:e8:5d:89:7e:b2:d6:75:1c:a7:83:5f:e9:98:fd:
         f7:9b:00:cd:f2:58:71:e7:a3:b7:25:22:0b:fd:df:55:39:21:
         ea:20:7b:21:9d:57:67:a3:97:0a:ad:00:6c:76:52:04:b2:d8:
         88:6c:0d:a5:7c:50:c2:66:72:86:68:f5:3f:2c:ec:22:c4:7c:
         82:06:c9:09:d4:87:f7:f4:b6:d8:7f:53:4c:ff:57:13:cc:db:
         57:f1:5e:42:c3:f0:63:3c:e0:83:d0:da:01:72:0d:71:32:cd:
         62:73:59:2e:4b:88:5a:da:a8:bc:d4:70:15:c1:dd:a3:b2:76:
         a6:dc:31:40:e5:1b:a7:54:af:75:f8:3f:82:9d:ef:3f:28:14:
         0d:ad:26:ca
-----BEGIN CERTIFICATE-----
MIIEGTCCAwGgAwIBAgIJAPW4gyenLFS6MA0GCSqGSIb3DQEBCwUAMIGLMQswCQYD
VQQGEwJVUzETMBEGA1UECBMKQ2FsaWZvcm5pYTEjMCEGA1UEChMaQmVsa2luIElu
dGVybmF0aW9uYWwsIEluYy4xIzAhBgNVBAsTGkJlbGtpbiBJbnRlcm5hdGlvbmFs
LCBJbmMuMR0wGwYDVQQDExRsaW5rc3lzc21hcnR3aWZpLmNvbTAeFw0yMjAxMjQx
ODE0MDRaFw0zMjAxMjIxODE0MDRaMIGLMQswCQYDVQQGEwJVUzETMBEGA1UECBMK
Q2FsaWZvcm5pYTEjMCEGA1UEChMaQmVsa2luIEludGVybmF0aW9uYWwsIEluYy4x
IzAhBgNVBAsTGkJlbGtpbiBJbnRlcm5hdGlvbmFsLCBJbmMuMR0wGwYDVQQDExRs
aW5rc3lzc21hcnR3aWZpLmNvbTCCASIwDQYJKoZIhvcNAQEBBQADggEPADCCAQoC
ggEBANCest2wradlhYetol/WXL5qELaAMOMbGUNSPVRfC2kmWpvQ45W4Mvhi4Dqs
CLMs7epEU6u67K1zUZddJNAaHxkaV9Yn8s+4CwLqoiHi1TPDueSpuTMLMzkGcSOi
zhjSf/D7G3UmkWjiF1UmUEMYVMM/fo+aLupgMeYwkNPHP1bQIu1M3F6CEFxzYWik
SlXKNpA/SzLaTx+sxJ+7Ee0D1qYDthGp/Vv/V137VgStaFaRlH3F93/7K/nmGwfT
pmJi+mPX5sMgPiaaTX4K9QnMMFEudBtnoDwICGGIMMMpQWAKrYmtkh3vOnd5iLYN
yTDoHOQFF/NIAoW68YMWHi1h1w8CAwEAAaN+MHwwCQYDVR0TBAIwADALBgNVHQ8E
BAMCBeAwYgYDVR0RBFswWYIUbGlua3N5c3NtYXJ0d2lmaS5jb22CGHd3dy5saW5r
c3lzc21hcnR3aWZpLmNvbYIObXlyb3V0ZXIubG9jYWyCF0VBODMwMC5ob21lLmxp
bmtzeXMuY29tMA0GCSqGSIb3DQEBCwUAA4IBAQBD0CQCn7i/ATodRdnODnMIEfLd
zaDv/5NJ61BEXJPPCDJM3m9FiX+sX8vWjGCn5CRqTzZpQpGP2p77FMQB2h73dtIl
5epeD5s3XksBw7o5LeT5Fu+V0QIHn4tDnZt2DSR0rzDCUGSlZZa4MB/q1zEk6F2J
frLWdRyng1/pmP33mwDN8lhx56O3JSIL/d9VOSHqIHshnVdno5cKrQBsdlIEstiI
bA2lfFDCZnKGaPU/LOwixHyCBskJ1If39LbYf1NM/1cTzNtX8V5Cw/BjPOCD0NoB
cg1xMs1ic1kuS4ha2qi81HAVwd2jsnam3DFA5RunVK91+D+Cne8/KBQNrSbK
-----END CERTIFICATE-----
